TN:
SF:/Users/graysongall/projects/rxn-cpp/src/BibTexHelper.C
FN:9,_ZN3rxn12BibTexHelper11getInstanceEv
FN:19,_ZN3rxn12BibTexHelper5clearEv
FN:25,_ZN3rxn12BibTexHelper17collectReferencesERKNSt3__112basic_stringIcNS1_11char_traitsIcEENS1_9allocatorIcEEEE
FN:65,_ZN3rxn12BibTexHelper12checkCiteKeyERKNSt3__112basic_stringIcNS1_11char_traitsIcEENS1_9allocatorIcEEEES9_
FNDA:0,_ZN3rxn12BibTexHelper17collectReferencesERKNSt3__112basic_stringIcNS1_11char_traitsIcEENS1_9allocatorIcEEEE
FNDA:0,_ZN3rxn12BibTexHelper12checkCiteKeyERKNSt3__112basic_stringIcNS1_11char_traitsIcEENS1_9allocatorIcEEEES9_
FNDA:2,_ZN3rxn12BibTexHelper11getInstanceEv
FNDA:2,_ZN3rxn12BibTexHelper5clearEv
FNF:4
FNH:2
DA:9,2
DA:12,2
DA:13,1
DA:14,1
DA:15,2
DA:16,0
DA:19,2
DA:21,2
DA:22,2
DA:25,0
DA:27,0
DA:28,0
DA:29,0
DA:31,0
DA:34,0
DA:35,0
DA:36,0
DA:37,0
DA:39,0
DA:41,0
DA:43,0
DA:46,0
DA:47,0
DA:48,0
DA:49,0
DA:52,0
DA:54,0
DA:55,0
DA:57,0
DA:58,0
DA:60,0
DA:61,0
DA:62,0
DA:65,0
DA:67,0
DA:69,0
DA:71,0
DA:74,0
DA:76,0
DA:78,0
DA:80,0
LF:41
LH:8
end_of_record
TN:
SF:/Users/graysongall/projects/rxn-cpp/src/Constants.C
FN:0,__cxx_global_var_init.14
FN:0,__cxx_global_var_init.18
FN:0,__cxx_global_var_init.9
FN:0,__cxx_global_var_init.24
FN:0,__cxx_global_var_init.44
FN:0,__cxx_global_var_init.28
FN:0,__cxx_global_var_init
FN:0,__cxx_global_var_init.31
FN:0,__cxx_global_var_init.11
FN:0,__cxx_global_var_init.43
FN:0,__cxx_global_var_init.23
FN:0,__cxx_global_var_init.7
FN:0,__cxx_global_var_init.41
FN:0,__cxx_global_var_init.21
FN:0,__cxx_global_var_init.37
FN:0,__cxx_global_var_init.13
FN:0,__cxx_global_var_init.33
FN:0,__cxx_global_var_init.35
FN:0,__cxx_global_var_init.3
FN:0,__cxx_global_var_init.1
FN:0,__cxx_global_var_init.19
FN:0,__cxx_global_var_init.46
FN:0,__cxx_global_var_init.39
FN:0,__cxx_global_var_init.26
FN:0,__cxx_global_var_init.5
FN:0,__cxx_global_var_init.29
FN:0,__cxx_global_var_init.16
FNDA:1,__cxx_global_var_init.9
FNDA:1,__cxx_global_var_init.14
FNDA:1,__cxx_global_var_init.18
FNDA:1,__cxx_global_var_init
FNDA:1,__cxx_global_var_init.24
FNDA:1,__cxx_global_var_init.44
FNDA:1,__cxx_global_var_init.28
FNDA:1,__cxx_global_var_init.43
FNDA:1,__cxx_global_var_init.7
FNDA:1,__cxx_global_var_init.23
FNDA:1,__cxx_global_var_init.31
FNDA:1,__cxx_global_var_init.11
FNDA:1,__cxx_global_var_init.37
FNDA:1,__cxx_global_var_init.13
FNDA:1,__cxx_global_var_init.33
FNDA:1,__cxx_global_var_init.35
FNDA:1,__cxx_global_var_init.41
FNDA:1,__cxx_global_var_init.21
FNDA:1,__cxx_global_var_init.19
FNDA:1,__cxx_global_var_init.46
FNDA:1,__cxx_global_var_init.5
FNDA:1,__cxx_global_var_init.26
FNDA:1,__cxx_global_var_init.39
FNDA:1,__cxx_global_var_init.3
FNDA:1,__cxx_global_var_init.1
FNDA:1,__cxx_global_var_init.29
FNDA:1,__cxx_global_var_init.16
FNF:27
FNH:27
DA:10,1
DA:11,1
DA:12,1
DA:13,1
DA:14,1
DA:15,1
DA:16,1
DA:17,1
DA:19,1
DA:20,1
DA:21,1
DA:23,1
DA:24,1
DA:25,1
DA:27,1
DA:28,1
DA:29,1
DA:31,1
DA:32,1
DA:33,1
DA:34,1
DA:35,1
DA:36,1
DA:37,1
DA:38,1
DA:41,1
DA:42,1
LF:27
LH:27
end_of_record
TN:
SF:/Users/graysongall/projects/rxn-cpp/src/InvalidInput.C
FN:5,_ZN3rxn14InvalidSpeciesC1ERKNSt3__112basic_stringIcNS1_11char_traitsIcEENS1_9allocatorIcEEEES9_
FN:5,_ZN3rxn14InvalidSpeciesC2ERKNSt3__112basic_stringIcNS1_11char_traitsIcEENS1_9allocatorIcEEEES9_
FN:11,_ZNK3rxn14InvalidSpecies4whatEv
FN:16,_ZN3rxn15InvalidReactionC2ERKNSt3__112basic_stringIcNS1_11char_traitsIcEENS1_9allocatorIcEEEES9_
FN:16,_ZN3rxn15InvalidReactionC1ERKNSt3__112basic_stringIcNS1_11char_traitsIcEENS1_9allocatorIcEEEES9_
FN:22,_ZNK3rxn15InvalidReaction4whatEv
FN:27,_ZN3rxn12InvalidInputC1ERKNSt3__112basic_stringIcNS1_11char_traitsIcEENS1_9allocatorIcEEEE
FN:27,_ZN3rxn12InvalidInputC2ERKNSt3__112basic_stringIcNS1_11char_traitsIcEENS1_9allocatorIcEEEE
FN:32,_ZN3rxn12InvalidInputC1ERKN4YAML4NodeERKNSt3__112basic_stringIcNS5_11char_traitsIcEENS5_9allocatorIcEEEE
FN:32,_ZN3rxn12InvalidInputC2ERKN4YAML4NodeERKNSt3__112basic_stringIcNS5_11char_traitsIcEENS5_9allocatorIcEEEE
FN:40,_ZN3rxn12InvalidInputC1ERKN4YAML4NodeERKNSt3__112basic_stringIcNS5_11char_traitsIcEENS5_9allocatorIcEEEESD_
FN:40,_ZN3rxn12InvalidInputC2ERKN4YAML4NodeERKNSt3__112basic_stringIcNS5_11char_traitsIcEENS5_9allocatorIcEEEESD_
FN:49,_ZNK3rxn12InvalidInput4whatEv
FN:54,_ZN3rxn16InvalidInputExitERKNSt3__112basic_stringIcNS0_11char_traitsIcEENS0_9allocatorIcEEEE
FN:64,_ZN3rxn16InvalidInputExitEN4YAML4NodeERKNSt3__112basic_stringIcNS2_11char_traitsIcEENS2_9allocatorIcEEEE
FN:78,_ZN3rxn16InvalidInputExitEN4YAML4NodeERKNSt3__112basic_stringIcNS2_11char_traitsIcEENS2_9allocatorIcEEEESA_
FNDA:0,_ZNK3rxn12InvalidInput4whatEv
FNDA:2,_ZN3rxn14InvalidSpeciesC2ERKNSt3__112basic_stringIcNS1_11char_traitsIcEENS1_9allocatorIcEEEES9_
FNDA:0,_ZN3rxn16InvalidInputExitEN4YAML4NodeERKNSt3__112basic_stringIcNS2_11char_traitsIcEENS2_9allocatorIcEEEESA_
FNDA:0,_ZNK3rxn15InvalidReaction4whatEv
FNDA:2,_ZN3rxn16InvalidInputExitERKNSt3__112basic_stringIcNS0_11char_traitsIcEENS0_9allocatorIcEEEE
FNDA:0,_ZN3rxn16InvalidInputExitEN4YAML4NodeERKNSt3__112basic_stringIcNS2_11char_traitsIcEENS2_9allocatorIcEEEE
FNDA:0,_ZN3rxn12InvalidInputC1ERKN4YAML4NodeERKNSt3__112basic_stringIcNS5_11char_traitsIcEENS5_9allocatorIcEEEE
FNDA:0,_ZN3rxn12InvalidInputC1ERKNSt3__112basic_stringIcNS1_11char_traitsIcEENS1_9allocatorIcEEEE
FNDA:0,_ZN3rxn12InvalidInputC1ERKN4YAML4NodeERKNSt3__112basic_stringIcNS5_11char_traitsIcEENS5_9allocatorIcEEEESD_
FNDA:0,_ZNK3rxn14InvalidSpecies4whatEv
FNDA:0,_ZN3rxn15InvalidReactionC2ERKNSt3__112basic_stringIcNS1_11char_traitsIcEENS1_9allocatorIcEEEES9_
FNDA:0,_ZN3rxn12InvalidInputC2ERKN4YAML4NodeERKNSt3__112basic_stringIcNS5_11char_traitsIcEENS5_9allocatorIcEEEESD_
FNDA:0,_ZN3rxn12InvalidInputC2ERKN4YAML4NodeERKNSt3__112basic_stringIcNS5_11char_traitsIcEENS5_9allocatorIcEEEE
FNDA:2,_ZN3rxn14InvalidSpeciesC1ERKNSt3__112basic_stringIcNS1_11char_traitsIcEENS1_9allocatorIcEEEES9_
FNDA:0,_ZN3rxn15InvalidReactionC1ERKNSt3__112basic_stringIcNS1_11char_traitsIcEENS1_9allocatorIcEEEES9_
FNDA:0,_ZN3rxn12InvalidInputC2ERKNSt3__112basic_stringIcNS1_11char_traitsIcEENS1_9allocatorIcEEEE
FNF:16
FNH:3
DA:5,6
DA:6,4
DA:7,2
DA:8,4
DA:11,0
DA:13,0
DA:16,0
DA:17,0
DA:18,0
DA:19,0
DA:22,0
DA:24,0
DA:27,0
DA:28,0
DA:29,0
DA:30,0
DA:32,0
DA:33,0
DA:34,0
DA:35,0
DA:37,0
DA:38,0
DA:40,0
DA:41,0
DA:42,0
DA:43,0
DA:45,0
DA:46,0
DA:49,0
DA:51,0
DA:54,2
DA:56,2
DA:58,2
DA:62,0
DA:64,0
DA:66,0
DA:67,0
DA:69,0
DA:71,0
DA:75,0
DA:78,0
DA:80,0
DA:81,0
DA:83,0
DA:85,0
DA:89,0
LF:46
LH:7
end_of_record
TN:
SF:/Users/graysongall/projects/rxn-cpp/src/NetworkParser.C
FN:0,__cxx_global_var_init.9
FN:0,__cxx_global_var_init.18
FN:0,__cxx_global_var_init.14
FN:0,__cxx_global_var_init
FN:0,__cxx_global_var_init.28
FN:0,__cxx_global_var_init.44
FN:0,__cxx_global_var_init.24
FN:0,__cxx_global_var_init.26
FN:0,__cxx_global_var_init.39
FN:0,__cxx_global_var_init.5
FN:0,__cxx_global_var_init.46
FN:0,__cxx_global_var_init.19
FN:0,__cxx_global_var_init.1
FN:0,__cxx_global_var_init.3
FN:0,__cxx_global_var_init.16
FN:0,__cxx_global_var_init.29
FN:0,__cxx_global_var_init.7
FN:0,__cxx_global_var_init.23
FN:0,__cxx_global_var_init.43
FN:0,__cxx_global_var_init.11
FN:0,__cxx_global_var_init.31
FN:0,__cxx_global_var_init.35
FN:0,__cxx_global_var_init.33
FN:0,__cxx_global_var_init.13
FN:0,__cxx_global_var_init.37
FN:0,__cxx_global_var_init.21
FN:0,__cxx_global_var_init.41
FN:8,_ZN3rxn13NetworkParser11getInstanceEv
FN:18,_ZN3rxn13NetworkParser5clearEv
FN:28,_ZN3rxn13NetworkParser9checkRefsEv
FN:34,_ZNK3rxn13NetworkParser9checkFileERKNSt3__112basic_stringIcNS1_11char_traitsIcEENS1_9allocatorIcEEEE
FN:49,_ZN3rxn13NetworkParser12checkBibFileERKNSt3__112basic_stringIcNS1_11char_traitsIcEENS1_9allocatorIcEEEE
FN:67,_ZN3rxn13NetworkParser14parseReactionsERKN4YAML4NodeEPNSt3__16vectorINS5_10shared_ptrIKNS_8ReactionEEENS5_9allocatorISA_EEEERKNS5_12basic_stringIcNS5_11char_traitsIcEENSB_IcEEEESL_SL_
FN:104,_ZN3rxn13NetworkParser12parseNetworkERKNSt3__112basic_stringIcNS1_11char_traitsIcEENS1_9allocatorIcEEEE
FN:169,_ZN3rxn13NetworkParser15writeLatexTableERKNSt3__112basic_stringIcNS1_11char_traitsIcEENS1_9allocatorIcEEEE
FN:295,_ZN3rxn13NetworkParser19writeSpeciesSummaryERKNSt3__112basic_stringIcNS1_11char_traitsIcEENS1_9allocatorIcEEEE
FNDA:1,__cxx_global_var_init.46
FNDA:0,_ZN3rxn13NetworkParser12checkBibFileERKNSt3__112basic_stringIcNS1_11char_traitsIcEENS1_9allocatorIcEEEE
FNDA:1,__cxx_global_var_init.26
FNDA:1,__cxx_global_var_init.5
FNDA:1,__cxx_global_var_init.39
FNDA:1,__cxx_global_var_init.19
FNDA:1,__cxx_global_var_init.1
FNDA:1,__cxx_global_var_init.3
FNDA:1,__cxx_global_var_init.16
FNDA:1,__cxx_global_var_init.29
FNDA:2,_ZN3rxn13NetworkParser5clearEv
FNDA:1,__cxx_global_var_init.43
FNDA:0,_ZN3rxn13NetworkParser15writeLatexTableERKNSt3__112basic_stringIcNS1_11char_traitsIcEENS1_9allocatorIcEEEE
FNDA:1,__cxx_global_var_init.23
FNDA:1,__cxx_global_var_init.7
FNDA:1,__cxx_global_var_init.11
FNDA:1,__cxx_global_var_init.31
FNDA:2,_ZN3rxn13NetworkParser14parseReactionsERKN4YAML4NodeEPNSt3__16vectorINS5_10shared_ptrIKNS_8ReactionEEENS5_9allocatorISA_EEEERKNS5_12basic_stringIcNS5_11char_traitsIcEENSB_IcEEEESL_SL_
FNDA:1,__cxx_global_var_init.33
FNDA:1,__cxx_global_var_init.35
FNDA:1,_ZN3rxn13NetworkParser12parseNetworkERKNSt3__112basic_stringIcNS1_11char_traitsIcEENS1_9allocatorIcEEEE
FNDA:1,__cxx_global_var_init.37
FNDA:1,__cxx_global_var_init.13
FNDA:1,__cxx_global_var_init.41
FNDA:1,__cxx_global_var_init.21
FNDA:1,__cxx_global_var_init.9
FNDA:0,_ZN3rxn13NetworkParser19writeSpeciesSummaryERKNSt3__112basic_stringIcNS1_11char_traitsIcEENS1_9allocatorIcEEEE
FNDA:0,_ZN3rxn13NetworkParser9checkRefsEv
FNDA:4,_ZN3rxn13NetworkParser11getInstanceEv
FNDA:1,__cxx_global_var_init.18
FNDA:1,__cxx_global_var_init.14
FNDA:3,_ZNK3rxn13NetworkParser9checkFileERKNSt3__112basic_stringIcNS1_11char_traitsIcEENS1_9allocatorIcEEEE
FNDA:1,__cxx_global_var_init
FNDA:1,__cxx_global_var_init.28
FNDA:1,__cxx_global_var_init.24
FNDA:1,__cxx_global_var_init.44
FNF:36
FNH:32
DA:8,4
DA:10,1
DA:11,5
DA:12,2
DA:13,2
DA:14,5
DA:15,1
DA:16,1
DA:17,1
DA:18,2
DA:19,1
DA:20,3
DA:21,3
DA:22,2
DA:23,3
DA:24,3
DA:25,3
DA:26,2
DA:27,1
DA:28,1
DA:29,1
DA:30,0
DA:31,1
DA:32,1
DA:33,1
DA:34,4
DA:35,1
DA:36,4
DA:37,4
DA:38,1
DA:39,1
DA:40,0
DA:41,3
DA:42,3
DA:44,1
DA:45,0
DA:46,4
DA:49,0
DA:51,0
DA:52,0
DA:55,0
DA:56,0
DA:57,0
DA:58,0
DA:60,0
DA:62,0
DA:63,0
DA:64,0
DA:67,2
DA:69,2
DA:71,1
DA:74,1
DA:76,0
DA:77,0
DA:79,1
DA:81,9
DA:84,8
DA:85,8
DA:86,8
DA:88,8
DA:89,8
DA:91,8
DA:93,0
DA:94,0
DA:96,8
DA:97,0
DA:98,0
DA:99,0
DA:100,8
DA:101,2
DA:104,1
DA:106,1
DA:107,1
DA:109,1
DA:111,1
DA:113,0
DA:115,0
DA:117,0
DA:118,0
DA:119,0
DA:122,0
DA:124,0
DA:125,0
DA:127,0
DA:128,0
DA:130,1
DA:134,1
DA:135,1
DA:136,0
DA:137,0
DA:138,0
DA:140,1
DA:142,0
DA:143,0
DA:146,1
DA:147,1
DA:149,0
DA:150,0
DA:151,0
DA:153,1
DA:154,1
DA:155,1
DA:157,1
DA:159,0
DA:160,0
DA:161,0
DA:162,0
DA:164,1
DA:165,1
DA:166,1
DA:169,0
DA:172,0
DA:174,0
DA:176,0
DA:177,0
DA:179,0
DA:180,0
DA:182,0
DA:183,0
DA:185,0
DA:187,0
DA:188,0
DA:189,0
DA:190,0
DA:191,0
DA:194,0
DA:195,0
DA:197,0
DA:198,0
DA:199,0
DA:202,0
DA:203,0
DA:204,0
DA:205,0
DA:206,0
DA:207,0
DA:208,0
DA:210,0
DA:211,0
DA:212,0
DA:213,0
DA:214,0
DA:215,0
DA:217,0
DA:219,0
DA:222,0
DA:224,0
DA:226,0
DA:227,0
DA:228,0
DA:229,0
DA:230,0
DA:232,0
DA:233,0
DA:234,0
DA:236,0
DA:237,0
DA:238,0
DA:239,0
DA:240,0
DA:242,0
DA:243,0
DA:245,0
DA:247,0
DA:248,0
DA:250,0
DA:251,0
DA:252,0
DA:253,0
DA:254,0
DA:256,0
DA:257,0
DA:259,0
DA:261,0
DA:263,0
DA:264,0
DA:265,0
DA:267,0
DA:268,0
DA:270,0
DA:271,0
DA:273,0
DA:275,0
DA:276,0
DA:278,0
DA:280,0
DA:281,0
DA:284,0
DA:285,0
DA:287,0
DA:289,0
DA:290,0
DA:291,0
DA:292,0
DA:295,0
DA:297,0
DA:298,0
DA:299,0
DA:300,0
LF:199
LH:67
end_of_record
TN:
SF:/Users/graysongall/projects/rxn-cpp/src/Reaction.C
FN:0,__cxx_global_var_init.13
FN:0,__cxx_global_var_init.37
FN:0,__cxx_global_var_init.35
FN:0,__cxx_global_var_init.33
FN:0,__cxx_global_var_init.31
FN:0,__cxx_global_var_init.11
FN:0,__cxx_global_var_init.29
FN:0,__cxx_global_var_init.16
FN:0,__cxx_global_var_init.5
FN:0,__cxx_global_var_init
FN:0,__cxx_global_var_init.44
FN:0,__cxx_global_var_init.24
FN:0,__cxx_global_var_init.28
FN:0,__cxx_global_var_init.21
FN:0,__cxx_global_var_init.41
FN:0,__cxx_global_var_init.23
FN:0,__cxx_global_var_init.7
FN:0,__cxx_global_var_init.43
FN:0,__cxx_global_var_init.19
FN:0,__cxx_global_var_init.39
FN:0,__cxx_global_var_init.26
FN:0,__cxx_global_var_init.46
FN:0,__cxx_global_var_init.3
FN:0,__cxx_global_var_init.1
FN:0,__cxx_global_var_init.9
FN:0,__cxx_global_var_init.14
FN:0,__cxx_global_var_init.18
FN:5,_ZN3rxn8ReactionC2ERKN4YAML4NodeEiRKNSt3__112basic_stringIcNS5_11char_traitsIcEENS5_9allocatorIcEEEESD_b
FN:5,_ZN3rxn8ReactionC1ERKN4YAML4NodeEiRKNSt3__112basic_stringIcNS5_11char_traitsIcEENS5_9allocatorIcEEEESD_b
FN:76,_ZN3rxn8Reaction9checkNameERKN4YAML4NodeE
FN:90,_ZN3rxn8Reaction8setSidesEv
FN:164,_ZN3rxn8Reaction8getCoeffERNSt3__112basic_stringIcNS1_11char_traitsIcEENS1_9allocatorIcEEEE
FN:182,_ZN3rxn8Reaction16validateReactionEv
FN:274,_ZN3rxn8Reaction16substituteLumpedEv
FN:340,_ZN3rxn8Reaction12setLatexNameEv
FN:394,_ZN3rxn8Reaction21determineReactionTypeEv
FN:407,_ZN3rxn8Reaction15checkReferencesEv
FN:421,_ZNK3rxn8Reaction7getNameEv
FN:427,_ZNK3rxn8Reaction22getLatexRepresentationEv
FN:433,_ZNK3rxn8Reaction17getReactionNumberEv
FN:439,_ZNK3rxn8Reaction13getReferencesEv
FN:445,_ZNK3rxn8Reaction8getNotesEv
FN:451,_ZNK3rxn8Reaction17getReactionParamsEv
FN:457,_ZNK3rxn8Reaction22getDeltaEnergyElectronEv
FN:463,_ZNK3rxn8Reaction17getDeltaEnergyGasEv
FN:469,_ZNK3rxn8ReactioneqERKS0_
FN:484,_ZNK3rxn8ReactionneERKS0_
FN:490,_ZNK3rxn8Reaction21getReferencesAsStringEv
FN:499,_ZNK3rxn8Reaction10getSpeciesEv
FN:505,_ZNK3rxn8Reaction19getStoicCoeffByNameERKNSt3__112basic_stringIcNS1_11char_traitsIcEENS1_9allocatorIcEEEE
FN:518,_ZN3rxn8Reaction20collectUniqueSpeciesEv
FN:544,_ZNKSt3__14hashIN3rxn8ReactionEEclERKS2_
FNDA:8,_ZN3rxn8Reaction12setLatexNameEv
FNDA:1,__cxx_global_var_init.1
FNDA:1,__cxx_global_var_init.3
FNDA:1,__cxx_global_var_init.26
FNDA:1,__cxx_global_var_init.39
FNDA:1,__cxx_global_var_init.46
FNDA:1,__cxx_global_var_init.19
FNDA:1,__cxx_global_var_init.21
FNDA:8,_ZNK3rxn8Reaction10getSpeciesEv
FNDA:1,__cxx_global_var_init.41
FNDA:0,_ZNK3rxn8Reaction17getDeltaEnergyGasEv
FNDA:31,_ZN3rxn8Reaction8getCoeffERNSt3__112basic_stringIcNS1_11char_traitsIcEENS1_9allocatorIcEEEE
FNDA:1,__cxx_global_var_init.7
FNDA:1,__cxx_global_var_init.23
FNDA:1,__cxx_global_var_init.43
FNDA:1,__cxx_global_var_init.18
FNDA:1,__cxx_global_var_init.14
FNDA:1,__cxx_global_var_init.9
FNDA:0,_ZNK3rxn8Reaction8getNotesEv
FNDA:16,_ZN3rxn8Reaction16validateReactionEv
FNDA:8,_ZN3rxn8ReactionC1ERKN4YAML4NodeEiRKNSt3__112basic_stringIcNS5_11char_traitsIcEENS5_9allocatorIcEEEESD_b
FNDA:0,_ZNK3rxn8Reaction19getStoicCoeffByNameERKNSt3__112basic_stringIcNS1_11char_traitsIcEENS1_9allocatorIcEEEE
FNDA:8,_ZN3rxn8Reaction16substituteLumpedEv
FNDA:0,_ZN3rxn8Reaction21determineReactionTypeEv
FNDA:0,_ZNK3rxn8ReactionneERKS0_
FNDA:1,__cxx_global_var_init.16
FNDA:1,__cxx_global_var_init.29
FNDA:0,_ZNK3rxn8ReactioneqERKS0_
FNDA:1,__cxx_global_var_init.5
FNDA:0,_ZNK3rxn8Reaction13getReferencesEv
FNDA:1,__cxx_global_var_init.35
FNDA:1,__cxx_global_var_init.33
FNDA:1,__cxx_global_var_init.13
FNDA:1,__cxx_global_var_init.37
FNDA:0,_ZNK3rxn8Reaction17getReactionNumberEv
FNDA:1,__cxx_global_var_init.11
FNDA:1,__cxx_global_var_init.31
FNDA:8,_ZN3rxn8Reaction9checkNameERKN4YAML4NodeE
FNDA:1,__cxx_global_var_init.28
FNDA:1,__cxx_global_var_init.44
FNDA:8,_ZN3rxn8ReactionC2ERKN4YAML4NodeEiRKNSt3__112basic_stringIcNS5_11char_traitsIcEENS5_9allocatorIcEEEESD_b
FNDA:1,__cxx_global_var_init.24
FNDA:8,_ZN3rxn8Reaction8setSidesEv
FNDA:0,_ZNK3rxn8Reaction17getReactionParamsEv
FNDA:1,__cxx_global_var_init
FNDA:8,_ZN3rxn8Reaction20collectUniqueSpeciesEv
FNDA:8,_ZNK3rxn8Reaction7getNameEv
FNDA:0,_ZNK3rxn8Reaction22getLatexRepresentationEv
FNDA:0,_ZNK3rxn8Reaction21getReferencesAsStringEv
FNDA:0,_ZN3rxn8Reaction15checkReferencesEv
FNDA:0,_ZNKSt3__14hashIN3rxn8ReactionEEclERKS2_
FNDA:0,_ZNK3rxn8Reaction22getDeltaEnergyElectronEv
FNF:52
FNH:38
DA:5,24
DA:10,9
DA:11,9
DA:12,9
DA:13,9
DA:14,9
DA:15,9
DA:16,9
DA:17,9
DA:18,8
DA:19,9
DA:20,9
DA:21,1
DA:23,1
DA:24,1
DA:25,1
DA:27,1
DA:28,1
DA:29,1
DA:31,1
DA:32,1
DA:33,1
DA:34,1
DA:35,9
DA:36,1
DA:37,9
DA:38,1
DA:39,0
DA:41,1
DA:42,1
DA:43,0
DA:44,0
DA:45,0
DA:48,0
DA:50,0
DA:51,0
DA:53,0
DA:54,0
DA:56,8
DA:57,8
DA:58,8
DA:59,8
DA:60,8
DA:61,8
DA:63,8
DA:65,0
DA:66,0
DA:73,16
DA:76,8
DA:79,8
DA:81,8
DA:83,0
DA:84,0
DA:86,8
DA:87,8
DA:90,8
DA:93,8
DA:94,8
DA:95,8
DA:97,8
DA:98,8
DA:100,8
DA:102,8
DA:103,23
DA:105,15
DA:106,15
DA:108,15
DA:110,15
DA:111,15
DA:112,15
DA:115,0
DA:116,0
DA:120,15
DA:121,15
DA:122,0
DA:123,0
DA:125,15
DA:127,15
DA:128,15
DA:129,15
DA:130,15
DA:132,8
DA:133,24
DA:135,16
DA:136,16
DA:138,16
DA:140,9
DA:141,9
DA:142,9
DA:145,7
DA:146,7
DA:150,16
DA:151,16
DA:152,0
DA:153,0
DA:155,16
DA:157,16
DA:158,16
DA:159,16
DA:160,16
DA:161,8
DA:164,31
DA:166,31
DA:168,31
DA:169,31
DA:171,26
DA:172,26
DA:175,5
DA:176,5
DA:178,62
DA:179,31
DA:182,16
DA:185,16
DA:187,16
DA:190,16
DA:191,16
DA:192,46
DA:194,30
DA:195,30
DA:196,30
DA:197,30
DA:198,60
DA:202,30
DA:203,10
DA:205,20
DA:207,16
DA:208,16
DA:211,4
DA:212,30
DA:213,30
DA:215,16
DA:217,16
DA:218,16
DA:219,48
DA:221,32
DA:222,32
DA:223,32
DA:224,32
DA:228,64
DA:232,32
DA:233,12
DA:234,20
DA:236,20
DA:238,0
DA:241,20
DA:243,16
DA:244,16
DA:247,4
DA:248,32
DA:249,32
DA:252,32
DA:253,16
DA:255,0
DA:256,0
DA:257,0
DA:258,16
DA:260,16
DA:261,16
DA:263,16
DA:264,0
DA:266,16
DA:267,0
DA:269,16
DA:270,0
DA:271,16
DA:274,8
DA:276,8
DA:277,8
DA:278,8
DA:279,8
DA:282,8
DA:284,23
DA:287,15
DA:288,15
DA:289,15
DA:291,15
DA:293,0
DA:294,0
DA:296,0
DA:297,0
DA:298,0
DA:301,0
DA:302,0
DA:304,0
DA:305,0
DA:306,0
DA:307,0
DA:309,0
DA:311,24
DA:313,16
DA:314,16
DA:316,16
DA:318,16
DA:320,0
DA:321,0
DA:323,0
DA:324,0
DA:325,0
DA:328,0
DA:329,0
DA:331,0
DA:332,0
DA:333,0
DA:334,0
DA:336,0
DA:337,8
DA:340,8
DA:344,8
DA:345,23
DA:347,15
DA:348,15
DA:350,15
DA:352,15
DA:353,0
DA:355,15
DA:357,15
DA:358,15
DA:359,2
DA:361,15
DA:363,15
DA:364,7
DA:365,15
DA:367,8
DA:369,8
DA:370,24
DA:372,16
DA:373,16
DA:375,16
DA:377,16
DA:378,0
DA:380,16
DA:382,16
DA:383,16
DA:384,3
DA:386,16
DA:388,16
DA:389,8
DA:390,16
DA:391,8
DA:394,0
DA:404,0
DA:407,0
DA:409,0
DA:410,0
DA:413,0
DA:414,0
DA:415,0
DA:416,0
DA:417,0
DA:418,0
DA:421,8
DA:423,8
DA:427,0
DA:429,0
DA:433,0
DA:435,0
DA:439,0
DA:441,0
DA:445,0
DA:447,0
DA:451,0
DA:453,0
DA:457,0
DA:459,0
DA:463,0
DA:465,0
DA:469,0
DA:471,0
DA:472,0
DA:474,0
DA:475,0
DA:477,0
DA:478,0
DA:480,0
DA:481,0
DA:484,0
DA:486,0
DA:490,0
DA:492,0
DA:493,0
DA:494,0
DA:495,0
DA:496,0
DA:499,8
DA:501,8
DA:505,0
DA:507,0
DA:508,0
DA:510,0
DA:513,0
DA:515,0
DA:518,8
DA:521,8
DA:522,8
DA:524,23
DA:526,15
DA:527,15
DA:529,15
DA:530,15
DA:531,15
DA:533,24
DA:535,16
DA:536,16
DA:538,16
DA:539,16
DA:540,16
DA:541,8
DA:544,0
DA:546,0
DA:548,0
DA:550,0
DA:551,0
DA:552,0
DA:557,0
DA:558,0
LF:315
LH:207
end_of_record
TN:
SF:/Users/graysongall/projects/rxn-cpp/src/Species.C
FN:0,__cxx_global_var_init.44
FN:0,__cxx_global_var_init.24
FN:0,__cxx_global_var_init.28
FN:0,__cxx_global_var_init
FN:0,__cxx_global_var_init.14
FN:0,__cxx_global_var_init.18
FN:0,__cxx_global_var_init.9
FN:0,__cxx_global_var_init.21
FN:0,__cxx_global_var_init.41
FN:0,__cxx_global_var_init.13
FN:0,__cxx_global_var_init.37
FN:0,__cxx_global_var_init.35
FN:0,__cxx_global_var_init.33
FN:0,__cxx_global_var_init.31
FN:0,__cxx_global_var_init.11
FN:0,__cxx_global_var_init.23
FN:0,__cxx_global_var_init.7
FN:0,__cxx_global_var_init.43
FN:0,__cxx_global_var_init.29
FN:0,__cxx_global_var_init.16
FN:0,__cxx_global_var_init.3
FN:0,__cxx_global_var_init.1
FN:0,__cxx_global_var_init.19
FN:0,__cxx_global_var_init.39
FN:0,__cxx_global_var_init.5
FN:0,__cxx_global_var_init.26
FN:0,__cxx_global_var_init.46
FN:6,_ZN3rxn7SpeciesC1ERKNSt3__112basic_stringIcNS1_11char_traitsIcEENS1_9allocatorIcEEEE
FN:6,_ZN3rxn7SpeciesC2ERKNSt3__112basic_stringIcNS1_11char_traitsIcEENS1_9allocatorIcEEEE
FN:17,_ZN3rxn7Species16decomposeSpeciesEv
FN:59,_ZN3rxn7Species7setMassEv
FN:68,_ZN3rxn7Species15setChargeNumberEv
FN:78,_ZN3rxn7Species12setLatexNameEv
FN:87,_ZNK3rxn7SpecieseqERKS0_
FN:110,_ZNK3rxn7SpeciesneERKS0_
FN:116,_ZNK3rxn7Species21getRateBasedReactionsEv
FN:128,_ZNK3rxn7Species21getXSecBasedReactionsEv
FN:140,_ZNK3rxn7Species13getSubSpeciesEv
FN:146,_ZNK3rxn7Species21setNeutralGroundStateEv
FN:160,_ZNKSt3__14hashIN3rxn7SpeciesEEclERKS2_
FNDA:1,_ZNK3rxn7SpeciesneERKS0_
FNDA:0,_ZNK3rxn7Species21getRateBasedReactionsEv
FNDA:29,_ZN3rxn7Species16decomposeSpeciesEv
FNDA:0,_ZNKSt3__14hashIN3rxn7SpeciesEEclERKS2_
FNDA:29,_ZN3rxn7Species15setChargeNumberEv
FNDA:1,__cxx_global_var_init.9
FNDA:1,__cxx_global_var_init.14
FNDA:1,__cxx_global_var_init.18
FNDA:1,__cxx_global_var_init
FNDA:29,_ZNK3rxn7Species21setNeutralGroundStateEv
FNDA:1,__cxx_global_var_init.44
FNDA:1,__cxx_global_var_init.24
FNDA:29,_ZN3rxn7Species7setMassEv
FNDA:6,_ZNK3rxn7SpecieseqERKS0_
FNDA:1,__cxx_global_var_init.28
FNDA:1,__cxx_global_var_init.7
FNDA:1,__cxx_global_var_init.23
FNDA:1,__cxx_global_var_init.43
FNDA:0,_ZNK3rxn7Species21getXSecBasedReactionsEv
FNDA:1,__cxx_global_var_init.31
FNDA:1,__cxx_global_var_init.11
FNDA:1,__cxx_global_var_init.13
FNDA:1,__cxx_global_var_init.37
FNDA:29,_ZN3rxn7SpeciesC1ERKNSt3__112basic_stringIcNS1_11char_traitsIcEENS1_9allocatorIcEEEE
FNDA:1,__cxx_global_var_init.35
FNDA:1,__cxx_global_var_init.33
FNDA:1,__cxx_global_var_init.21
FNDA:1,__cxx_global_var_init.41
FNDA:29,_ZN3rxn7SpeciesC2ERKNSt3__112basic_stringIcNS1_11char_traitsIcEENS1_9allocatorIcEEEE
FNDA:1,__cxx_global_var_init.19
FNDA:1,__cxx_global_var_init.26
FNDA:1,__cxx_global_var_init.39
FNDA:1,__cxx_global_var_init.5
FNDA:1,__cxx_global_var_init.46
FNDA:29,_ZN3rxn7Species12setLatexNameEv
FNDA:1,__cxx_global_var_init.3
FNDA:1,__cxx_global_var_init.1
FNDA:218,_ZNK3rxn7Species13getSubSpeciesEv
FNDA:1,__cxx_global_var_init.29
FNDA:1,__cxx_global_var_init.16
FNF:40
FNH:37
DA:6,87
DA:7,29
DA:8,29
DA:9,29
DA:10,59
DA:11,30
DA:12,30
DA:13,30
DA:14,59
DA:15,1
DA:16,1
DA:17,30
DA:19,30
DA:20,30
DA:21,65
DA:23,36
DA:24,1
DA:25,30
DA:26,29
DA:27,1
DA:28,1
DA:29,1
DA:31,1
DA:32,7
DA:33,1
DA:34,1
DA:35,4
DA:36,1
DA:37,4
DA:38,1
DA:39,3
DA:41,4
DA:42,1
DA:43,3
DA:45,3
DA:46,35
DA:48,29
DA:50,61
DA:52,32
DA:53,32
DA:55,29
DA:56,29
DA:59,29
DA:61,29
DA:62,61
DA:63,32
DA:64,29
DA:65,29
DA:68,29
DA:70,29
DA:71,61
DA:72,32
DA:73,29
DA:74,29
DA:78,29
DA:80,29
DA:81,61
DA:82,32
DA:83,29
DA:84,29
DA:87,6
DA:89,6
DA:90,0
DA:92,6
DA:93,0
DA:95,6
DA:96,0
DA:98,6
DA:99,2
DA:101,8
DA:103,4
DA:104,0
DA:105,4
DA:106,4
DA:107,6
DA:110,1
DA:112,1
DA:116,0
DA:118,0
DA:120,0
DA:122,0
DA:123,0
DA:124,0
DA:125,0
DA:128,0
DA:130,0
DA:132,0
DA:134,0
DA:135,0
DA:136,0
DA:137,0
DA:140,218
DA:142,218
DA:146,29
DA:148,29
DA:149,61
DA:151,32
DA:152,32
DA:154,29
DA:155,29
DA:160,0
DA:162,0
DA:164,0
DA:166,0
DA:167,0
DA:169,0
DA:170,0
DA:171,0
DA:174,0
DA:175,0
LF:110
LH:82
end_of_record
TN:
SF:/Users/graysongall/projects/rxn-cpp/src/SpeciesBase.C
FN:0,__cxx_global_var_init.18
FN:0,__cxx_global_var_init.14
FN:0,__cxx_global_var_init.9
FN:0,__cxx_global_var_init.28
FN:0,__cxx_global_var_init.44
FN:0,__cxx_global_var_init.24
FN:0,__cxx_global_var_init
FN:0,__cxx_global_var_init.1
FN:0,__cxx_global_var_init.3
FN:0,__cxx_global_var_init.26
FN:0,__cxx_global_var_init.39
FN:0,__cxx_global_var_init.5
FN:0,__cxx_global_var_init.46
FN:0,__cxx_global_var_init.19
FN:0,__cxx_global_var_init.16
FN:0,__cxx_global_var_init.29
FN:0,__cxx_global_var_init.11
FN:0,__cxx_global_var_init.31
FN:0,__cxx_global_var_init.23
FN:0,__cxx_global_var_init.7
FN:0,__cxx_global_var_init.43
FN:0,__cxx_global_var_init.21
FN:0,__cxx_global_var_init.41
FN:0,__cxx_global_var_init.35
FN:0,__cxx_global_var_init.33
FN:0,__cxx_global_var_init.13
FN:0,__cxx_global_var_init.37
FN:5,_ZN3rxn11SpeciesBaseC2ERKNSt3__112basic_stringIcNS1_11char_traitsIcEENS1_9allocatorIcEEEE
FN:13,_ZN3rxnlsERNSt3__113basic_ostreamIcNS0_11char_traitsIcEEEERKNS_11SpeciesBaseE
FN:20,_ZN3rxn11SpeciesBase9checkNameERKNSt3__112basic_stringIcNS1_11char_traitsIcEENS1_9allocatorIcEEEE
FN:41,_ZNK3rxn11SpeciesBaseeqERKS0_
FN:48,_ZNK3rxn11SpeciesBaseneERKS0_
FN:54,_ZNK3rxn11SpeciesBase7getNameEv
FN:60,_ZNK3rxn11SpeciesBase7getMassEv
FN:66,_ZNK3rxn11SpeciesBase15getChargeNumberEv
FN:72,_ZNK3rxn11SpeciesBase9getChargeEv
FN:78,_ZNK3rxn11SpeciesBase22getLatexRepresentationEv
FN:85,_ZNKSt3__14hashIN3rxn11SpeciesBaseEEclERKS2_
FNDA:10,_ZNK3rxn11SpeciesBaseneERKS0_
FNDA:84,_ZN3rxn11SpeciesBaseC2ERKNSt3__112basic_stringIcNS1_11char_traitsIcEENS1_9allocatorIcEEEE
FNDA:1,__cxx_global_var_init.7
FNDA:1,__cxx_global_var_init.23
FNDA:1,__cxx_global_var_init.43
FNDA:1,__cxx_global_var_init.11
FNDA:1,__cxx_global_var_init.31
FNDA:1,__cxx_global_var_init.35
FNDA:0,_ZN3rxnlsERNSt3__113basic_ostreamIcNS0_11char_traitsIcEEEERKNS_11SpeciesBaseE
FNDA:1,__cxx_global_var_init.33
FNDA:1,__cxx_global_var_init.13
FNDA:1,__cxx_global_var_init.37
FNDA:84,_ZN3rxn11SpeciesBase9checkNameERKNSt3__112basic_stringIcNS1_11char_traitsIcEENS1_9allocatorIcEEEE
FNDA:146,_ZNK3rxn11SpeciesBase15getChargeNumberEv
FNDA:1,__cxx_global_var_init.21
FNDA:1,__cxx_global_var_init.41
FNDA:1,__cxx_global_var_init.26
FNDA:1,__cxx_global_var_init.39
FNDA:1,__cxx_global_var_init.5
FNDA:1,__cxx_global_var_init.46
FNDA:1,__cxx_global_var_init.19
FNDA:1,__cxx_global_var_init.1
FNDA:1,__cxx_global_var_init.3
FNDA:1,__cxx_global_var_init.16
FNDA:115,_ZNK3rxn11SpeciesBase22getLatexRepresentationEv
FNDA:1,__cxx_global_var_init.29
FNDA:0,_ZNKSt3__14hashIN3rxn11SpeciesBaseEEclERKS2_
FNDA:146,_ZNK3rxn11SpeciesBase7getMassEv
FNDA:10,_ZNK3rxn11SpeciesBaseeqERKS0_
FNDA:52,_ZNK3rxn11SpeciesBase9getChargeEv
FNDA:1,__cxx_global_var_init.9
FNDA:1,__cxx_global_var_init.18
FNDA:1,__cxx_global_var_init.14
FNDA:310,_ZNK3rxn11SpeciesBase7getNameEv
FNDA:1,__cxx_global_var_init
FNDA:1,__cxx_global_var_init.28
FNDA:1,__cxx_global_var_init.44
FNDA:1,__cxx_global_var_init.24
FNF:38
FNH:36
DA:5,168
DA:6,84
DA:7,84
DA:8,84
DA:10,1
DA:11,1
DA:12,1
DA:13,1
DA:14,1
DA:15,1
DA:16,1
DA:17,1
DA:19,1
DA:20,85
DA:21,1
DA:22,84
DA:23,3
DA:24,1
DA:25,84
DA:27,22
DA:28,1
DA:29,2
DA:31,21
DA:32,63
DA:33,1
DA:34,1
DA:35,1
DA:36,1
DA:37,83
DA:38,3
DA:41,11
DA:42,1
DA:43,10
DA:48,10
DA:50,10
DA:54,310
DA:56,310
DA:60,146
DA:62,146
DA:66,146
DA:68,146
DA:72,52
DA:74,52
DA:78,115
DA:80,115
DA:85,0
DA:88,0
LF:47
LH:45
end_of_record
TN:
SF:/Users/graysongall/projects/rxn-cpp/src/SpeciesFactory.C
FN:0,__cxx_global_var_init
FN:0,__cxx_global_var_init.28
FN:0,__cxx_global_var_init.44
FN:0,__cxx_global_var_init.24
FN:0,__cxx_global_var_init.9
FN:0,__cxx_global_var_init.18
FN:0,__cxx_global_var_init.14
FN:0,__cxx_global_var_init.16
FN:0,__cxx_global_var_init.29
FN:0,__cxx_global_var_init.26
FN:0,__cxx_global_var_init.39
FN:0,__cxx_global_var_init.5
FN:0,__cxx_global_var_init.46
FN:0,__cxx_global_var_init.19
FN:0,__cxx_global_var_init.1
FN:0,__cxx_global_var_init.3
FN:0,__cxx_global_var_init.35
FN:0,__cxx_global_var_init.33
FN:0,__cxx_global_var_init.13
FN:0,__cxx_global_var_init.37
FN:0,__cxx_global_var_init.21
FN:0,__cxx_global_var_init.41
FN:0,__cxx_global_var_init.23
FN:0,__cxx_global_var_init.7
FN:0,__cxx_global_var_init.43
FN:0,__cxx_global_var_init.11
FN:0,__cxx_global_var_init.31
FN:9,_ZN3rxn14SpeciesFactory11getInstanceEv
FN:19,_ZN3rxn14SpeciesFactory5clearEv
FN:29,_ZN3rxn14SpeciesFactory20collectCustomSpeciesERKN4YAML4NodeE
FN:81,_ZN3rxn14SpeciesFactory20collectLumpedSpeciesERKN4YAML4NodeE
FN:138,_ZN3rxn14SpeciesFactory21collectLatexOverridesERKN4YAML4NodeE
FN:199,_ZNK3rxn14SpeciesFactory7getMassERKNSt3__112basic_stringIcNS1_11char_traitsIcEENS1_9allocatorIcEEEE
FN:212,_ZNK3rxn14SpeciesFactory16getLatexOverrideERKNSt3__112basic_stringIcNS1_11char_traitsIcEENS1_9allocatorIcEEEE
FN:224,_ZN3rxn14SpeciesFactory10getSpeciesERKNSt3__112basic_stringIcNS1_11char_traitsIcEENS1_9allocatorIcEEEE
FN:241,_ZN3rxn14SpeciesFactory16getLumpedSpeciesERNSt3__18weak_ptrINS_7SpeciesEEE
FN:257,_ZN3rxn14SpeciesFactory20addRateBasedReactionENSt3__110shared_ptrIKNS_8ReactionEEE
FN:268,_ZN3rxn14SpeciesFactory20addXSecBasedReactionENSt3__110shared_ptrIKNS_8ReactionEEE
FN:279,_ZNK3rxn14SpeciesFactory17getSpeciesSummaryEv
FNDA:1,__cxx_global_var_init.19
FNDA:1,__cxx_global_var_init.26
FNDA:1,__cxx_global_var_init.5
FNDA:1,__cxx_global_var_init.39
FNDA:1,_ZN3rxn14SpeciesFactory20collectLumpedSpeciesERKN4YAML4NodeE
FNDA:1,__cxx_global_var_init.46
FNDA:31,_ZN3rxn14SpeciesFactory16getLumpedSpeciesERNSt3__18weak_ptrINS_7SpeciesEEE
FNDA:53,_ZNK3rxn14SpeciesFactory16getLatexOverrideERKNSt3__112basic_stringIcNS1_11char_traitsIcEENS1_9allocatorIcEEEE
FNDA:31,_ZN3rxn14SpeciesFactory10getSpeciesERKNSt3__112basic_stringIcNS1_11char_traitsIcEENS1_9allocatorIcEEEE
FNDA:1,__cxx_global_var_init.3
FNDA:1,__cxx_global_var_init.1
FNDA:0,_ZNK3rxn14SpeciesFactory17getSpeciesSummaryEv
FNDA:1,__cxx_global_var_init.29
FNDA:1,__cxx_global_var_init.16
FNDA:5,_ZN3rxn14SpeciesFactory20collectCustomSpeciesERKN4YAML4NodeE
FNDA:0,_ZN3rxn14SpeciesFactory20addXSecBasedReactionENSt3__110shared_ptrIKNS_8ReactionEEE
FNDA:1,__cxx_global_var_init.23
FNDA:1,__cxx_global_var_init.7
FNDA:1,__cxx_global_var_init.43
FNDA:234,_ZN3rxn14SpeciesFactory11getInstanceEv
FNDA:1,__cxx_global_var_init.31
FNDA:148,_ZNK3rxn14SpeciesFactory7getMassERKNSt3__112basic_stringIcNS1_11char_traitsIcEENS1_9allocatorIcEEEE
FNDA:1,__cxx_global_var_init.11
FNDA:1,__cxx_global_var_init.13
FNDA:1,__cxx_global_var_init.37
FNDA:1,__cxx_global_var_init.35
FNDA:1,__cxx_global_var_init.33
FNDA:1,__cxx_global_var_init.21
FNDA:1,__cxx_global_var_init.41
FNDA:2,_ZN3rxn14SpeciesFactory5clearEv
FNDA:1,__cxx_global_var_init.9
FNDA:1,__cxx_global_var_init.14
FNDA:1,__cxx_global_var_init.18
FNDA:1,__cxx_global_var_init
FNDA:1,__cxx_global_var_init.44
FNDA:1,__cxx_global_var_init.24
FNDA:1,__cxx_global_var_init.28
FNDA:8,_ZN3rxn14SpeciesFactory20addRateBasedReactionENSt3__110shared_ptrIKNS_8ReactionEEE
FNDA:1,_ZN3rxn14SpeciesFactory21collectLatexOverridesERKN4YAML4NodeE
FNF:39
FNH:37
DA:9,234
DA:10,1
DA:11,1
DA:12,235
DA:13,2
DA:14,2
DA:15,235
DA:16,1
DA:17,1
DA:19,3
DA:20,3
DA:21,3
DA:22,2
DA:23,3
DA:24,3
DA:25,3
DA:27,1
DA:28,1
DA:29,6
DA:31,6
DA:32,2
DA:33,1
DA:34,5
DA:35,1
DA:36,1
DA:37,1
DA:38,1
DA:39,4
DA:41,1
DA:42,1
DA:44,4
DA:46,0
DA:47,0
DA:49,4
DA:51,0
DA:52,0
DA:53,0
DA:54,0
DA:55,0
DA:57,4
DA:58,4
DA:60,4
DA:62,0
DA:63,0
DA:65,4
DA:67,0
DA:68,0
DA:70,8
DA:72,4
DA:74,0
DA:75,0
DA:76,4
DA:77,4
DA:78,5
DA:81,1
DA:83,1
DA:84,1
DA:86,0
DA:88,0
DA:89,0
DA:91,0
DA:92,0
DA:94,0
DA:96,0
DA:98,0
DA:99,0
DA:101,0
DA:103,0
DA:104,0
DA:107,0
DA:108,0
DA:109,0
DA:110,0
DA:111,0
DA:113,0
DA:115,0
DA:116,0
DA:119,0
DA:120,0
DA:121,0
DA:122,0
DA:123,0
DA:125,0
DA:127,0
DA:128,0
DA:130,0
DA:131,0
DA:132,0
DA:133,0
DA:134,1
DA:138,1
DA:140,1
DA:141,1
DA:143,0
DA:145,0
DA:146,0
DA:148,0
DA:150,0
DA:151,0
DA:153,0
DA:155,0
DA:156,0
DA:158,0
DA:160,0
DA:161,0
DA:162,0
DA:163,0
DA:164,0
DA:166,0
DA:167,0
DA:170,0
DA:171,0
DA:172,0
DA:173,0
DA:174,0
DA:175,0
DA:177,0
DA:179,0
DA:180,0
DA:182,0
DA:184,0
DA:185,0
DA:187,0
DA:189,0
DA:190,0
DA:192,0
DA:194,0
DA:195,0
DA:196,1
DA:199,148
DA:201,148
DA:203,148
DA:205,0
DA:208,296
DA:209,148
DA:212,53
DA:214,53
DA:216,53
DA:218,53
DA:220,0
DA:221,53
DA:224,31
DA:226,31
DA:228,31
DA:230,31
DA:232,7
DA:233,7
DA:235,31
DA:237,31
DA:238,31
DA:241,31
DA:243,31
DA:244,31
DA:245,31
DA:247,31
DA:249,31
DA:252,0
DA:253,0
DA:254,31
DA:257,8
DA:259,8
DA:260,39
DA:262,31
DA:263,31
DA:264,31
DA:265,8
DA:268,0
DA:270,0
DA:271,0
DA:273,0
DA:274,0
DA:275,0
DA:276,0
DA:279,0
DA:281,0
DA:282,0
DA:284,0
DA:286,0
DA:287,0
DA:289,0
DA:291,0
DA:292,0
DA:294,0
DA:295,0
DA:297,0
DA:298,0
DA:299,0
DA:301,0
DA:303,0
DA:304,0
DA:305,0
DA:307,0
DA:309,0
DA:310,0
DA:312,0
DA:313,0
DA:314,0
DA:315,0
DA:316,0
DA:319,0
DA:320,0
DA:323,0
DA:325,0
DA:326,0
DA:327,0
DA:329,0
DA:332,0
DA:334,0
DA:335,0
DA:337,0
DA:338,0
DA:339,0
DA:340,0
DA:341,0
DA:343,0
DA:344,0
DA:346,0
DA:348,0
DA:349,0
DA:351,0
DA:352,0
DA:354,0
DA:355,0
DA:357,0
DA:358,0
DA:360,0
DA:361,0
DA:363,0
DA:365,0
DA:367,0
DA:368,0
DA:370,0
DA:371,0
DA:372,0
DA:374,0
DA:376,0
DA:377,0
DA:378,0
DA:380,0
DA:381,0
DA:382,0
DA:383,0
DA:384,0
DA:386,0
DA:387,0
DA:389,0
DA:390,0
DA:391,0
DA:393,0
DA:394,0
DA:396,0
DA:398,0
DA:399,0
DA:401,0
DA:402,0
DA:404,0
DA:406,0
DA:408,0
DA:409,0
DA:411,0
DA:412,0
DA:414,0
DA:416,0
DA:418,0
DA:419,0
DA:421,0
DA:422,0
DA:423,0
DA:425,0
DA:427,0
DA:428,0
DA:430,0
DA:431,0
DA:432,0
DA:433,0
DA:434,0
DA:435,0
DA:436,0
DA:438,0
DA:439,0
DA:440,0
DA:443,0
DA:444,0
LF:283
LH:82
end_of_record
TN:
SF:/Users/graysongall/projects/rxn-cpp/src/StringHelper.C
FN:0,__cxx_global_var_init
FN:8,_ZN3rxn5ltrimERNSt3__112basic_stringIcNS0_11char_traitsIcEENS0_9allocatorIcEEEE
FN:15,_ZN3rxn5rtrimERNSt3__112basic_stringIcNS0_11char_traitsIcEENS0_9allocatorIcEEEE
FN:22,_ZN3rxn4trimERNSt3__112basic_stringIcNS0_11char_traitsIcEENS0_9allocatorIcEEEE
FN:29,_ZN3rxn16splitByDelimiterERKNSt3__112basic_stringIcNS0_11char_traitsIcEENS0_9allocatorIcEEEES6_
FN:52,_ZN3rxn16findFirstCapitalERKNSt3__112basic_stringIcNS0_11char_traitsIcEENS0_9allocatorIcEEEE
FN:65,_ZN3rxn16findFirstSpecialERKNSt3__112basic_stringIcNS0_11char_traitsIcEENS0_9allocatorIcEEEE
FN:78,_ZN3rxn18findFirstNonLetterERKNSt3__112basic_stringIcNS0_11char_traitsIcEENS0_9allocatorIcEEEE
FN:89,_ZN3rxn15findFirstLetterERKNSt3__112basic_stringIcNS0_11char_traitsIcEENS0_9allocatorIcEEEE
FN:100,_ZN3rxn18findFirstNonNumberERKNSt3__112basic_stringIcNS0_11char_traitsIcEENS0_9allocatorIcEEEE
FN:111,_ZN3rxn19findFirstNonSpecialERKNSt3__112basic_stringIcNS0_11char_traitsIcEENS0_9allocatorIcEEEE
FN:122,_ZN3rxn14splitByCapitalERKNSt3__112basic_stringIcNS0_11char_traitsIcEENS0_9allocatorIcEEEE
FN:163,_ZN3rxn16formatScientificEf
FN:183,_ZN3rxn9makeGreenERKNSt3__112basic_stringIcNS0_11char_traitsIcEENS0_9allocatorIcEEEE
FN:189,_ZN3rxn10makeYellowERKNSt3__112basic_stringIcNS0_11char_traitsIcEENS0_9allocatorIcEEEE
FN:195,_ZN3rxn7makeRedERKNSt3__112basic_stringIcNS0_11char_traitsIcEENS0_9allocatorIcEEEE
FN:201,_ZN3rxn10printGreenERKNSt3__112basic_stringIcNS0_11char_traitsIcEENS0_9allocatorIcEEEE
FN:207,_ZN3rxn8printRedERKNSt3__112basic_stringIcNS0_11char_traitsIcEENS0_9allocatorIcEEEE
FN:213,_ZN3rxn11printYellowERKNSt3__112basic_stringIcNS0_11char_traitsIcEENS0_9allocatorIcEEEE
FNDA:0,_ZN3rxn16formatScientificEf
FNDA:0,_ZN3rxn11printYellowERKNSt3__112basic_stringIcNS0_11char_traitsIcEENS0_9allocatorIcEEEE
FNDA:153,_ZN3rxn16findFirstCapitalERKNSt3__112basic_stringIcNS0_11char_traitsIcEENS0_9allocatorIcEEEE
FNDA:0,_ZN3rxn10makeYellowERKNSt3__112basic_stringIcNS0_11char_traitsIcEENS0_9allocatorIcEEEE
FNDA:80,_ZN3rxn18findFirstNonLetterERKNSt3__112basic_stringIcNS0_11char_traitsIcEENS0_9allocatorIcEEEE
FNDA:27,_ZN3rxn16findFirstSpecialERKNSt3__112basic_stringIcNS0_11char_traitsIcEENS0_9allocatorIcEEEE
FNDA:51,_ZN3rxn18findFirstNonNumberERKNSt3__112basic_stringIcNS0_11char_traitsIcEENS0_9allocatorIcEEEE
FNDA:27,_ZN3rxn19findFirstNonSpecialERKNSt3__112basic_stringIcNS0_11char_traitsIcEENS0_9allocatorIcEEEE
FNDA:1,__cxx_global_var_init
FNDA:8,_ZN3rxn9makeGreenERKNSt3__112basic_stringIcNS0_11char_traitsIcEENS0_9allocatorIcEEEE
FNDA:31,_ZN3rxn15findFirstLetterERKNSt3__112basic_stringIcNS0_11char_traitsIcEENS0_9allocatorIcEEEE
FNDA:47,_ZN3rxn4trimERNSt3__112basic_stringIcNS0_11char_traitsIcEENS0_9allocatorIcEEEE
FNDA:47,_ZN3rxn5ltrimERNSt3__112basic_stringIcNS0_11char_traitsIcEENS0_9allocatorIcEEEE
FNDA:2,_ZN3rxn8printRedERKNSt3__112basic_stringIcNS0_11char_traitsIcEENS0_9allocatorIcEEEE
FNDA:29,_ZN3rxn14splitByCapitalERKNSt3__112basic_stringIcNS0_11char_traitsIcEENS0_9allocatorIcEEEE
FNDA:24,_ZN3rxn16splitByDelimiterERKNSt3__112basic_stringIcNS0_11char_traitsIcEENS0_9allocatorIcEEEES6_
FNDA:47,_ZN3rxn5rtrimERNSt3__112basic_stringIcNS0_11char_traitsIcEENS0_9allocatorIcEEEE
FNDA:8,_ZN3rxn10printGreenERKNSt3__112basic_stringIcNS0_11char_traitsIcEENS0_9allocatorIcEEEE
FNDA:2,_ZN3rxn7makeRedERKNSt3__112basic_stringIcNS0_11char_traitsIcEENS0_9allocatorIcEEEE
FNF:19
FNH:16
DA:5,1
DA:8,47
DA:10,47
DA:11,47
DA:12,47
DA:15,47
DA:17,47
DA:18,47
DA:19,47
DA:22,47
DA:24,47
DA:25,47
DA:26,47
DA:29,24
DA:31,24
DA:32,24
DA:33,24
DA:34,24
DA:36,47
DA:38,23
DA:39,23
DA:40,23
DA:41,23
DA:42,23
DA:45,24
DA:46,24
DA:48,24
DA:49,24
DA:52,153
DA:54,457
DA:56,304
DA:58,126
DA:60,178
DA:61,27
DA:62,153
DA:65,27
DA:67,54
DA:69,27
DA:70,0
DA:72,27
DA:74,0
DA:75,27
DA:78,80
DA:80,353
DA:82,273
DA:83,68
DA:84,205
DA:85,12
DA:86,80
DA:89,31
DA:91,67
DA:93,36
DA:94,31
DA:95,5
DA:96,0
DA:97,31
DA:100,51
DA:102,160
DA:104,109
DA:105,36
DA:106,73
DA:107,15
DA:108,51
DA:111,27
DA:113,75
DA:115,48
DA:116,21
DA:117,27
DA:118,6
DA:119,27
DA:122,29
DA:124,29
DA:126,29
DA:129,29
DA:131,6
DA:135,23
DA:137,2
DA:140,21
DA:142,21
DA:144,48
DA:147,27
DA:149,27
DA:150,27
DA:153,27
DA:155,6
DA:156,6
DA:157,21
DA:159,21
DA:160,29
DA:163,0
DA:165,0
DA:167,0
DA:169,0
DA:172,0
DA:174,0
DA:177,0
DA:180,0
DA:183,8
DA:185,8
DA:186,0
DA:189,0
DA:191,0
DA:192,0
DA:195,2
DA:197,2
DA:198,0
DA:201,8
DA:203,8
DA:204,8
DA:207,2
DA:209,2
DA:210,2
DA:213,0
DA:215,0
DA:216,0
LF:115
LH:96
end_of_record
TN:
SF:/Users/graysongall/projects/rxn-cpp/src/SubSpecies.C
FN:0,__cxx_global_var_init
FN:0,__cxx_global_var_init.24
FN:0,__cxx_global_var_init.44
FN:0,__cxx_global_var_init.28
FN:0,__cxx_global_var_init.31
FN:0,__cxx_global_var_init.11
FN:0,__cxx_global_var_init.37
FN:0,__cxx_global_var_init.13
FN:0,__cxx_global_var_init.33
FN:0,__cxx_global_var_init.35
FN:0,__cxx_global_var_init.5
FN:0,__cxx_global_var_init.29
FN:0,__cxx_global_var_init.16
FN:0,__cxx_global_var_init.9
FN:0,__cxx_global_var_init.14
FN:0,__cxx_global_var_init.18
FN:0,__cxx_global_var_init.43
FN:0,__cxx_global_var_init.7
FN:0,__cxx_global_var_init.23
FN:0,__cxx_global_var_init.41
FN:0,__cxx_global_var_init.21
FN:0,__cxx_global_var_init.19
FN:0,__cxx_global_var_init.46
FN:0,__cxx_global_var_init.26
FN:0,__cxx_global_var_init.39
FN:0,__cxx_global_var_init.3
FN:0,__cxx_global_var_init.1
FN:7,_ZN3rxn10SubSpeciesC1ERKNSt3__112basic_stringIcNS1_11char_traitsIcEENS1_9allocatorIcEEEE
FN:7,_ZN3rxn10SubSpeciesC2ERKNSt3__112basic_stringIcNS1_11char_traitsIcEENS1_9allocatorIcEEEE
FN:20,_ZN3rxn10SubSpecies7setBaseEv
FN:46,_ZN3rxn10SubSpecies11setModifierEv
FN:63,_ZN3rxn10SubSpecies12setSubscriptEv
FN:83,_ZN3rxn10SubSpecies15setChargeNumberEv
FN:171,_ZN3rxn10SubSpecies7setMassEv
FN:186,_ZN3rxn10SubSpecies12setLatexNameEv
FN:260,_ZNK3rxn10SubSpecieseqERKS0_
FN:288,_ZNK3rxn10SubSpeciesneERKS0_
FN:294,_ZNK3rxn10SubSpecies7getBaseEv
FN:300,_ZNK3rxn10SubSpecies11getModifierEv
FN:306,_ZNK3rxn10SubSpecies12getSubscriptEv
FN:312,_ZNK3rxn10SubSpecies21setNeutralGroundStateEv
FN:325,_ZNK3rxn10SubSpecies21getNeutralGroundStateEv
FN:332,_ZNKSt3__14hashIN3rxn10SubSpeciesEEclERKS2_
FNDA:53,_ZN3rxn10SubSpecies15setChargeNumberEv
FNDA:53,_ZN3rxn10SubSpecies7setMassEv
FNDA:0,_ZNKSt3__14hashIN3rxn10SubSpeciesEEclERKS2_
FNDA:1,__cxx_global_var_init.18
FNDA:1,__cxx_global_var_init.14
FNDA:1,__cxx_global_var_init.9
FNDA:5,_ZNK3rxn10SubSpeciesneERKS0_
FNDA:1,__cxx_global_var_init.41
FNDA:53,_ZN3rxn10SubSpeciesC2ERKNSt3__112basic_stringIcNS1_11char_traitsIcEENS1_9allocatorIcEEEE
FNDA:1,__cxx_global_var_init.21
FNDA:280,_ZNK3rxn10SubSpecies7getBaseEv
FNDA:1,__cxx_global_var_init.43
FNDA:1,__cxx_global_var_init.23
FNDA:1,__cxx_global_var_init.7
FNDA:53,_ZN3rxn10SubSpecies12setLatexNameEv
FNDA:38,_ZNK3rxn10SubSpecies11getModifierEv
FNDA:1,__cxx_global_var_init.1
FNDA:10,_ZNK3rxn10SubSpecieseqERKS0_
FNDA:1,__cxx_global_var_init.3
FNDA:1,__cxx_global_var_init.46
FNDA:1,__cxx_global_var_init.26
FNDA:1,__cxx_global_var_init.39
FNDA:1,__cxx_global_var_init.19
FNDA:1,__cxx_global_var_init.28
FNDA:1,__cxx_global_var_init.24
FNDA:1,__cxx_global_var_init.44
FNDA:76,_ZNK3rxn10SubSpecies12getSubscriptEv
FNDA:1,__cxx_global_var_init
FNDA:53,_ZN3rxn10SubSpecies11setModifierEv
FNDA:32,_ZNK3rxn10SubSpecies21getNeutralGroundStateEv
FNDA:1,__cxx_global_var_init.33
FNDA:53,_ZN3rxn10SubSpecies12setSubscriptEv
FNDA:1,__cxx_global_var_init.35
FNDA:1,__cxx_global_var_init.37
FNDA:1,__cxx_global_var_init.13
FNDA:53,_ZN3rxn10SubSpecies7setBaseEv
FNDA:55,_ZN3rxn10SubSpeciesC1ERKNSt3__112basic_stringIcNS1_11char_traitsIcEENS1_9allocatorIcEEEE
FNDA:1,__cxx_global_var_init.11
FNDA:1,__cxx_global_var_init.31
FNDA:1,__cxx_global_var_init.16
FNDA:1,__cxx_global_var_init.29
FNDA:1,__cxx_global_var_init.5
FNDA:53,_ZNK3rxn10SubSpecies21setNeutralGroundStateEv
FNF:43
FNH:42
DA:7,108
DA:8,53
DA:9,53
DA:10,54
DA:11,54
DA:12,54
DA:13,109
DA:14,54
DA:15,54
DA:16,54
DA:17,109
DA:19,1
DA:20,54
DA:21,1
DA:22,53
DA:23,3
DA:24,1
DA:25,52
DA:26,13
DA:27,1
DA:28,39
DA:29,1
DA:30,38
DA:31,1
DA:32,1
DA:33,1
DA:34,1
DA:35,39
DA:36,1
DA:37,39
DA:38,5
DA:40,38
DA:41,1
DA:42,39
DA:43,53
DA:46,53
DA:48,53
DA:49,2
DA:51,51
DA:52,13
DA:54,38
DA:56,38
DA:57,4
DA:59,34
DA:60,53
DA:63,53
DA:66,53
DA:67,19
DA:69,34
DA:71,34
DA:72,7
DA:75,34
DA:76,14
DA:79,20
DA:80,53
DA:83,53
DA:85,53
DA:87,13
DA:88,13
DA:92,40
DA:94,6
DA:95,6
DA:99,34
DA:100,34
DA:102,20
DA:103,20
DA:104,20
DA:105,20
DA:107,14
DA:110,34
DA:112,7
DA:113,7
DA:117,27
DA:119,0
DA:120,0
DA:121,0
DA:122,0
DA:123,0
DA:125,27
DA:127,5
DA:128,5
DA:132,22
DA:134,22
DA:135,12
DA:137,10
DA:139,22
DA:141,5
DA:142,5
DA:147,17
DA:150,17
DA:153,17
DA:154,8
DA:156,17
DA:158,17
DA:160,0
DA:161,0
DA:165,17
DA:167,17
DA:168,53
DA:171,53
DA:173,53
DA:175,53
DA:177,13
DA:178,13
DA:181,40
DA:182,40
DA:183,53
DA:186,53
DA:188,53
DA:189,53
DA:191,0
DA:192,0
DA:195,53
DA:197,2
DA:198,2
DA:201,51
DA:203,17
DA:204,17
DA:207,34
DA:209,34
DA:211,34
DA:213,20
DA:214,20
DA:215,20
DA:217,34
DA:220,22
DA:222,22
DA:224,12
DA:225,12
DA:226,12
DA:230,10
DA:231,10
DA:235,22
DA:236,5
DA:238,22
DA:240,17
DA:241,17
DA:242,17
DA:243,22
DA:245,34
DA:247,20
DA:248,20
DA:251,14
DA:253,14
DA:254,14
DA:256,14
DA:257,53
DA:260,10
DA:263,10
DA:264,2
DA:266,8
DA:267,0
DA:269,8
DA:270,0
DA:272,8
DA:273,0
DA:275,8
DA:276,0
DA:278,8
DA:279,0
DA:281,8
DA:282,0
DA:284,8
DA:285,10
DA:288,5
DA:290,5
DA:294,280
DA:296,280
DA:300,38
DA:302,38
DA:306,76
DA:308,76
DA:312,53
DA:314,53
DA:316,53
DA:317,53
DA:319,20
DA:320,20
DA:321,53
DA:322,53
DA:325,32
DA:327,32
DA:332,0
DA:334,0
DA:336,0
DA:338,0
DA:339,0
DA:340,0
DA:341,0
DA:342,0
DA:343,0
DA:344,0
DA:345,0
DA:347,0
DA:348,0
LF:195
LH:167
end_of_record
TN:
SF:/Users/graysongall/projects/rxn-cpp/src/YamlHelper.C
FN:6,_ZN3rxn11getTypeNameINSt3__112basic_stringIcNS1_11char_traitsIcEENS1_9allocatorIcEEEEEES7_v
FN:11,_ZN3rxn11getTypeNameIdEENSt3__112basic_stringIcNS1_11char_traitsIcEENS1_9allocatorIcEEEEv
FN:17,_ZN3rxn12defaultValueIdEET_v
FN:23,_ZN3rxn12defaultValueINSt3__112basic_stringIcNS1_11char_traitsIcEENS1_9allocatorIcEEEEEET_v
FN:28,_ZN3rxn10validParamERKNSt3__112basic_stringIcNS0_11char_traitsIcEENS0_9allocatorIcEEEERKN4YAML4NodeEb
FN:42,_ZN3rxn9getParamsINSt3__112basic_stringIcNS1_11char_traitsIcEENS1_9allocatorIcEEEEEENS1_6vectorIT_NS5_IS9_EEEERKS7_RKN4YAML4NodeEb
FN:42,_ZN3rxn9getParamsIdEENSt3__16vectorIT_NS1_9allocatorIS3_EEEERKNS1_12basic_stringIcNS1_11char_traitsIcEENS4_IcEEEERKN4YAML4NodeEb
FN:81,_ZN3rxn8getParamIdEET_RKNSt3__112basic_stringIcNS2_11char_traitsIcEENS2_9allocatorIcEEEERKN4YAML4NodeEb
FN:81,_ZN3rxn8getParamINSt3__112basic_stringIcNS1_11char_traitsIcEENS1_9allocatorIcEEEEEET_RKS7_RKN4YAML4NodeEb
FN:106,_ZN3rxn14getExtraParamsERKN4YAML4NodeERKNSt3__16vectorIKNS4_12basic_stringIcNS4_11char_traitsIcEENS4_9allocatorIcEEEENS9_ISC_EEEE
FNDA:0,_ZN3rxn11getTypeNameIdEENSt3__112basic_stringIcNS1_11char_traitsIcEENS1_9allocatorIcEEEEv
FNDA:68,_ZN3rxn10validParamERKNSt3__112basic_stringIcNS0_11char_traitsIcEENS0_9allocatorIcEEEERKN4YAML4NodeEb
FNDA:0,_ZN3rxn11getTypeNameINSt3__112basic_stringIcNS1_11char_traitsIcEENS1_9allocatorIcEEEEEES7_v
FNDA:9,_ZN3rxn14getExtraParamsERKN4YAML4NodeERKNSt3__16vectorIKNS4_12basic_stringIcNS4_11char_traitsIcEENS4_9allocatorIcEEEENS9_ISC_EEEE
FNDA:20,_ZN3rxn9getParamsINSt3__112basic_stringIcNS1_11char_traitsIcEENS1_9allocatorIcEEEEEENS1_6vectorIT_NS5_IS9_EEEERKS7_RKN4YAML4NodeEb
FNDA:16,_ZN3rxn8getParamIdEET_RKNSt3__112basic_stringIcNS2_11char_traitsIcEENS2_9allocatorIcEEEERKN4YAML4NodeEb
FNDA:0,_ZN3rxn12defaultValueINSt3__112basic_stringIcNS1_11char_traitsIcEENS1_9allocatorIcEEEEEET_v
FNDA:4,_ZN3rxn9getParamsIdEENSt3__16vectorIT_NS1_9allocatorIS3_EEEERKNS1_12basic_stringIcNS1_11char_traitsIcEENS4_IcEEEERKN4YAML4NodeEb
FNDA:12,_ZN3rxn12defaultValueIdEET_v
FNDA:10,_ZN3rxn8getParamINSt3__112basic_stringIcNS1_11char_traitsIcEENS1_9allocatorIcEEEEEET_RKS7_RKN4YAML4NodeEb
FNF:10
FNH:7
DA:6,0
DA:7,0
DA:11,0
DA:12,0
DA:17,12
DA:18,12
DA:23,0
DA:24,0
DA:28,68
DA:30,68
DA:32,23
DA:34,0
DA:36,23
DA:38,45
DA:39,68
DA:42,24
DA:45,24
DA:47,7
DA:50,17
DA:54,17
DA:55,17
DA:61,17
DA:62,17
DA:63,17
DA:64,17
DA:66,0
DA:69,0
DA:70,17
DA:72,0
DA:73,58
DA:81,26
DA:84,26
DA:86,12
DA:89,14
DA:91,14
DA:92,14
DA:95,0
DA:96,0
DA:98,14
DA:99,36
DA:106,9
DA:108,9
DA:109,9
DA:110,9
DA:112,41
DA:114,32
DA:115,32
DA:117,150
DA:119,118
DA:121,32
DA:122,32
DA:124,118
DA:126,32
DA:128,0
DA:129,0
DA:130,32
DA:131,9
DA:132,9
LF:58
LH:44
end_of_record
